target datalayout = "e-m:e-p270:32:32-p271:32:32-p272:64:64-i64:64-i128:128-f80:128-n8:16:32:64-S128"
target triple = "x86_64-pc-linux-gnu"

%"struct.rocksdb::FileIndexer::IndexLevel" = type { i64, ptr }
%"struct.rocksdb::FileIndexer::IndexUnit" = type { i32, i32, i32, i32 }
%"class.std::function" = type { %"class.std::_Function_base", ptr }
%"class.std::_Function_base" = type { %"union.std::_Any_data", ptr }
%"union.std::_Any_data" = type { %"union.std::_Nocopy_types" }
%"union.std::_Nocopy_types" = type { { i64, i64 } }
%"class.std::function.19" = type { %"class.std::_Function_base", ptr }
%"struct.std::_Vector_base.15" = type { %"struct.std::_Vector_base<rocksdb::FileMetaData *, std::allocator<rocksdb::FileMetaData *>>::_Vector_impl" }
%"struct.std::_Vector_base<rocksdb::FileMetaData *, std::allocator<rocksdb::FileMetaData *>>::_Vector_impl" = type { %"struct.std::_Vector_base<rocksdb::FileMetaData *, std::allocator<rocksdb::FileMetaData *>>::_Vector_impl_data" }
%"struct.std::_Vector_base<rocksdb::FileMetaData *, std::allocator<rocksdb::FileMetaData *>>::_Vector_impl_data" = type { ptr, ptr, ptr }

; Function Attrs: mustprogress nounwind uwtable
define linkonce_odr noundef zeroext i1 @_ZNKSt14_Function_base8_M_emptyEv(ptr noundef nonnull align 8 dereferenceable(24) %0) #4 comdat align 2 {
  %2 = alloca ptr, align 8
  store ptr %0, ptr %2, align 8, !tbaa !96
  %3 = load ptr, ptr %2, align 8
  %4 = getelementptr inbounds nuw %"class.std::_Function_base", ptr %3, i32 0, i32 1
  %5 = load ptr, ptr %4, align 8, !tbaa !93
  %6 = icmp ne ptr %5, null
  %7 = xor i1 %6, true
  ret i1 %7
}

; Function Attrs: mustprogress uwtable
define linkonce_odr void @_ZNKSt8functionIFvPN7rocksdb11FileIndexer9IndexUnitEiEEclES3_i(ptr noundef nonnull align 8 dereferenceable(32) %0, ptr noundef %1, i32 noundef %2) #6 comdat align 2 {
  %4 = alloca ptr, align 8
  %5 = alloca ptr, align 8
  %6 = alloca i32, align 4
  store ptr %0, ptr %4, align 8, !tbaa !83
  store ptr %1, ptr %5, align 8, !tbaa !48
  store i32 %2, ptr %6, align 4, !tbaa !44
  %7 = load ptr, ptr %4, align 8
  %8 = call noundef zeroext i1 @_ZNKSt14_Function_base8_M_emptyEv(ptr noundef nonnull align 8 dereferenceable(24) %7)
  br i1 %8, label %9, label %10

9:                                                ; preds = %3
  call void @_ZSt25__throw_bad_function_callv() #15
  unreachable

10:                                               ; preds = %3
  %11 = getelementptr inbounds nuw %"class.std::function.19", ptr %7, i32 0, i32 1
  %12 = load ptr, ptr %11, align 8, !tbaa !94
  %13 = getelementptr inbounds nuw %"class.std::_Function_base", ptr %7, i32 0, i32 0
  call void %12(ptr noundef nonnull align 8 dereferenceable(16) %13, ptr noundef nonnull align 8 dereferenceable(8) %5, ptr noundef nonnull align 4 dereferenceable(4) %6)
  ret void
}

; Function Attrs: mustprogress uwtable
define linkonce_odr noundef i32 @_ZNKSt8functionIFiPKN7rocksdb12FileMetaDataES3_EEclES3_S3_(ptr noundef nonnull align 8 dereferenceable(32) %0, ptr noundef %1, ptr noundef %2) #6 comdat align 2 {
  %4 = alloca ptr, align 8
  %5 = alloca ptr, align 8
  %6 = alloca ptr, align 8
  store ptr %0, ptr %4, align 8, !tbaa !81
  store ptr %1, ptr %5, align 8, !tbaa !85
  store ptr %2, ptr %6, align 8, !tbaa !85
  %7 = load ptr, ptr %4, align 8
  %8 = call noundef zeroext i1 @_ZNKSt14_Function_base8_M_emptyEv(ptr noundef nonnull align 8 dereferenceable(24) %7)
  br i1 %8, label %9, label %10

9:                                                ; preds = %3
  call void @_ZSt25__throw_bad_function_callv() #15
  unreachable

10:                                               ; preds = %3
  %11 = getelementptr inbounds nuw %"class.std::function", ptr %7, i32 0, i32 1
  %12 = load ptr, ptr %11, align 8, !tbaa !90
  %13 = getelementptr inbounds nuw %"class.std::_Function_base", ptr %7, i32 0, i32 0
  %14 = call noundef i32 %12(ptr noundef nonnull align 8 dereferenceable(16) %13, ptr noundef nonnull align 8 dereferenceable(8) %5, ptr noundef nonnull align 8 dereferenceable(8) %6)
  ret i32 %14
}

; Function Attrs: mustprogress nounwind uwtable
define linkonce_odr noundef nonnull align 8 dereferenceable(8) ptr @_ZNKSt6vectorIPN7rocksdb12FileMetaDataESaIS2_EEixEm(ptr noundef nonnull align 8 dereferenceable(24) %0, i64 noundef %1) #4 comdat align 2 {
  %3 = alloca ptr, align 8
  %4 = alloca i64, align 8
  store ptr %0, ptr %3, align 8, !tbaa !56
  store i64 %1, ptr %4, align 8, !tbaa !4
  %5 = load ptr, ptr %3, align 8
  %6 = getelementptr inbounds nuw %"struct.std::_Vector_base.15", ptr %5, i32 0, i32 0
  %7 = getelementptr inbounds nuw %"struct.std::_Vector_base<rocksdb::FileMetaData *, std::allocator<rocksdb::FileMetaData *>>::_Vector_impl_data", ptr %6, i32 0, i32 0
  %8 = load ptr, ptr %7, align 8, !tbaa !80
  %9 = load i64, ptr %4, align 8, !tbaa !4
  %10 = getelementptr inbounds nuw ptr, ptr %8, i64 %9
  ret ptr %10
}

; Function Attrs: mustprogress nounwind uwtable
define linkonce_odr noundef i64 @_ZNKSt6vectorIPN7rocksdb12FileMetaDataESaIS2_EE4sizeEv(ptr noundef nonnull align 8 dereferenceable(24) %0) #4 comdat align 2 {
  %2 = alloca ptr, align 8
  store ptr %0, ptr %2, align 8, !tbaa !56
  %3 = load ptr, ptr %2, align 8
  %4 = getelementptr inbounds nuw %"struct.std::_Vector_base.15", ptr %3, i32 0, i32 0
  %5 = getelementptr inbounds nuw %"struct.std::_Vector_base<rocksdb::FileMetaData *, std::allocator<rocksdb::FileMetaData *>>::_Vector_impl_data", ptr %4, i32 0, i32 1
  %6 = load ptr, ptr %5, align 8, !tbaa !76
  %7 = getelementptr inbounds nuw %"struct.std::_Vector_base.15", ptr %3, i32 0, i32 0
  %8 = getelementptr inbounds nuw %"struct.std::_Vector_base<rocksdb::FileMetaData *, std::allocator<rocksdb::FileMetaData *>>::_Vector_impl_data", ptr %7, i32 0, i32 0
  %9 = load ptr, ptr %8, align 8, !tbaa !80
  %10 = ptrtoint ptr %6 to i64
  %11 = ptrtoint ptr %9 to i64
  %12 = sub i64 %10, %11
  %13 = sdiv exact i64 %12, 8
  ret i64 %13
}

; Function Attrs: mustprogress uwtable
define void @_ZN7rocksdb11FileIndexer11CalculateRBERKSt6vectorIPNS_12FileMetaDataESaIS3_EES7_PNS0_10IndexLevelESt8functionIFiPKS2_SC_EESA_IFvPNS0_9IndexUnitEiEE(ptr noundef nonnull align 8 dereferenceable(192) %0, ptr noundef nonnull align 8 dereferenceable(24) %1, ptr noundef nonnull align 8 dereferenceable(24) %2, ptr noundef %3, ptr noundef %4, ptr noundef %5) #6 align 2 {
  %7 = alloca ptr, align 8
  %8 = alloca ptr, align 8
  %9 = alloca ptr, align 8
  %10 = alloca ptr, align 8
  %11 = alloca ptr, align 8
  %12 = alloca ptr, align 8
  %13 = alloca i32, align 4
  %14 = alloca i32, align 4
  %15 = alloca i32, align 4
  %16 = alloca i32, align 4
  %17 = alloca ptr, align 8
  %18 = alloca i32, align 4
  store ptr %0, ptr %7, align 8, !tbaa !22
  store ptr %1, ptr %8, align 8, !tbaa !56
  store ptr %2, ptr %9, align 8, !tbaa !56
  store ptr %3, ptr %10, align 8, !tbaa !63
  store ptr %4, ptr %11, align 8, !tbaa !81
  store ptr %5, ptr %12, align 8, !tbaa !83
  call void @llvm.lifetime.start.p0(i64 4, ptr %13) #5
  %19 = load ptr, ptr %8, align 8, !tbaa !56
  %20 = call noundef i64 @_ZNKSt6vectorIPN7rocksdb12FileMetaDataESaIS2_EE4sizeEv(ptr noundef nonnull align 8 dereferenceable(24) %19) #5
  %21 = trunc i64 %20 to i32
  store i32 %21, ptr %13, align 4, !tbaa !44
  call void @llvm.lifetime.start.p0(i64 4, ptr %14) #5
  %22 = load ptr, ptr %9, align 8, !tbaa !56
  %23 = call noundef i64 @_ZNKSt6vectorIPN7rocksdb12FileMetaDataESaIS2_EE4sizeEv(ptr noundef nonnull align 8 dereferenceable(24) %22) #5
  %24 = trunc i64 %23 to i32
  store i32 %24, ptr %14, align 4, !tbaa !44
  call void @llvm.lifetime.start.p0(i64 4, ptr %15) #5
  %25 = load i32, ptr %13, align 4, !tbaa !44
  %26 = sub nsw i32 %25, 1
  store i32 %26, ptr %15, align 4, !tbaa !44
  call void @llvm.lifetime.start.p0(i64 4, ptr %16) #5
  %27 = load i32, ptr %14, align 4, !tbaa !44
  %28 = sub nsw i32 %27, 1
  store i32 %28, ptr %16, align 4, !tbaa !44
  call void @llvm.lifetime.start.p0(i64 8, ptr %17) #5
  %29 = load ptr, ptr %10, align 8, !tbaa !63
  %30 = getelementptr inbounds nuw %"struct.rocksdb::FileIndexer::IndexLevel", ptr %29, i32 0, i32 1
  %31 = load ptr, ptr %30, align 8, !tbaa !47
  store ptr %31, ptr %17, align 8, !tbaa !48
  br label %32

32:                                               ; preds = %77, %6
  %33 = load i32, ptr %15, align 4, !tbaa !44
  %34 = icmp sge i32 %33, 0
  br i1 %34, label %35, label %38

35:                                               ; preds = %32
  %36 = load i32, ptr %16, align 4, !tbaa !44
  %37 = icmp sge i32 %36, 0
  br label %38

38:                                               ; preds = %35, %32
  %39 = phi i1 [ false, %32 ], [ %37, %35 ]
  br i1 %39, label %40, label %78

40:                                               ; preds = %38
  call void @llvm.lifetime.start.p0(i64 4, ptr %18) #5
  %41 = load ptr, ptr %8, align 8, !tbaa !56
  %42 = load i32, ptr %15, align 4, !tbaa !44
  %43 = sext i32 %42 to i64
  %44 = call noundef nonnull align 8 dereferenceable(8) ptr @_ZNKSt6vectorIPN7rocksdb12FileMetaDataESaIS2_EEixEm(ptr noundef nonnull align 8 dereferenceable(24) %41, i64 noundef %43) #5
  %45 = load ptr, ptr %44, align 8, !tbaa !85
  %46 = load ptr, ptr %9, align 8, !tbaa !56
  %47 = load i32, ptr %16, align 4, !tbaa !44
  %48 = sext i32 %47 to i64
  %49 = call noundef nonnull align 8 dereferenceable(8) ptr @_ZNKSt6vectorIPN7rocksdb12FileMetaDataESaIS2_EEixEm(ptr noundef nonnull align 8 dereferenceable(24) %46, i64 noundef %48) #5
  %50 = load ptr, ptr %49, align 8, !tbaa !85
  %51 = call noundef i32 @_ZNKSt8functionIFiPKN7rocksdb12FileMetaDataES3_EEclES3_S3_(ptr noundef nonnull align 8 dereferenceable(32) %4, ptr noundef %45, ptr noundef %50)
  store i32 %51, ptr %18, align 4, !tbaa !44
  %52 = load i32, ptr %18, align 4, !tbaa !44
  %53 = icmp eq i32 %52, 0
  br i1 %53, label %54, label %62

54:                                               ; preds = %40
  %55 = load ptr, ptr %17, align 8, !tbaa !48
  %56 = load i32, ptr %15, align 4, !tbaa !44
  %57 = sext i32 %56 to i64
  %58 = getelementptr inbounds %"struct.rocksdb::FileIndexer::IndexUnit", ptr %55, i64 %57
  %59 = load i32, ptr %16, align 4, !tbaa !44
  call void @_ZNKSt8functionIFvPN7rocksdb11FileIndexer9IndexUnitEiEEclES3_i(ptr noundef nonnull align 8 dereferenceable(32) %5, ptr noundef %58, i32 noundef %59)
  %60 = load i32, ptr %15, align 4, !tbaa !44
  %61 = add nsw i32 %60, -1
  store i32 %61, ptr %15, align 4, !tbaa !44
  br label %77

62:                                               ; preds = %40
  %63 = load i32, ptr %18, align 4, !tbaa !44
  %64 = icmp slt i32 %63, 0
  br i1 %64, label %65, label %68

65:                                               ; preds = %62
  %66 = load i32, ptr %16, align 4, !tbaa !44
  %67 = add nsw i32 %66, -1
  store i32 %67, ptr %16, align 4, !tbaa !44
  br label %76

68:                                               ; preds = %62
  %69 = load ptr, ptr %17, align 8, !tbaa !48
  %70 = load i32, ptr %15, align 4, !tbaa !44
  %71 = sext i32 %70 to i64
  %72 = getelementptr inbounds %"struct.rocksdb::FileIndexer::IndexUnit", ptr %69, i64 %71
  %73 = load i32, ptr %16, align 4, !tbaa !44
  call void @_ZNKSt8functionIFvPN7rocksdb11FileIndexer9IndexUnitEiEEclES3_i(ptr noundef nonnull align 8 dereferenceable(32) %5, ptr noundef %72, i32 noundef %73)
  %74 = load i32, ptr %15, align 4, !tbaa !44
  %75 = add nsw i32 %74, -1
  store i32 %75, ptr %15, align 4, !tbaa !44
  br label %76

76:                                               ; preds = %68, %65
  br label %77

77:                                               ; preds = %76, %54
  call void @llvm.lifetime.end.p0(i64 4, ptr %18) #5
  br label %32, !llvm.loop !98

78:                                               ; preds = %38
  br label %79

79:                                               ; preds = %82, %78
  %80 = load i32, ptr %15, align 4, !tbaa !44
  %81 = icmp sge i32 %80, 0
  br i1 %81, label %82, label %89

82:                                               ; preds = %79
  %83 = load ptr, ptr %17, align 8, !tbaa !48
  %84 = load i32, ptr %15, align 4, !tbaa !44
  %85 = sext i32 %84 to i64
  %86 = getelementptr inbounds %"struct.rocksdb::FileIndexer::IndexUnit", ptr %83, i64 %85
  call void @_ZNKSt8functionIFvPN7rocksdb11FileIndexer9IndexUnitEiEEclES3_i(ptr noundef nonnull align 8 dereferenceable(32) %5, ptr noundef %86, i32 noundef -1)
  %87 = load i32, ptr %15, align 4, !tbaa !44
  %88 = add nsw i32 %87, -1
  store i32 %88, ptr %15, align 4, !tbaa !44
  br label %79, !llvm.loop !99

89:                                               ; preds = %79
  call void @llvm.lifetime.end.p0(i64 8, ptr %17) #5
  call void @llvm.lifetime.end.p0(i64 4, ptr %16) #5
  call void @llvm.lifetime.end.p0(i64 4, ptr %15) #5
  call void @llvm.lifetime.end.p0(i64 4, ptr %14) #5
  call void @llvm.lifetime.end.p0(i64 4, ptr %13) #5
  ret void
}