; Function Attrs: mustprogress uwtable
define void @_ZN7rocksdb11FileIndexer11CalculateRBERKSt6vectorIPNS_12FileMetaDataESaIS3_EES7_PNS0_10IndexLevelESt8functionIFiPKS2_SC_EESA_IFvPNS0_9IndexUnitEiEE(ptr nonnull readnone align 8 captures(none) %0, ptr noundef nonnull readonly align 8 captures(none) dereferenceable(24) %1, ptr noundef nonnull readonly align 8 captures(none) dereferenceable(24) %2, ptr noundef readonly captures(none) %3, ptr noundef %4, ptr noundef %5) local_unnamed_addr #7 align 2 {
  %7 = alloca ptr, align 8
  %8 = alloca i32, align 4
  %9 = alloca ptr, align 8
  %10 = alloca i32, align 4
  %11 = alloca ptr, align 8
  %12 = alloca i32, align 4
  %13 = alloca ptr, align 8
  %14 = alloca ptr, align 8
  %15 = getelementptr inbounds nuw i8, ptr %1, i64 8
  %16 = load ptr, ptr %15, align 8, !tbaa !44
  %17 = load ptr, ptr %1, align 8, !tbaa !48
  %18 = ptrtoint ptr %16 to i64
  %19 = ptrtoint ptr %17 to i64
  %20 = sub i64 %18, %19
  %21 = lshr exact i64 %20, 3
  %22 = trunc i64 %21 to i32
  %23 = getelementptr inbounds nuw i8, ptr %2, i64 8
  %24 = load ptr, ptr %23, align 8, !tbaa !44
  %25 = load ptr, ptr %2, align 8, !tbaa !48
  %26 = ptrtoint ptr %24 to i64
  %27 = ptrtoint ptr %25 to i64
  %28 = sub i64 %26, %27
  %29 = lshr exact i64 %28, 3
  %30 = trunc i64 %29 to i32
  %31 = add nsw i32 %22, -1
  %32 = getelementptr inbounds nuw i8, ptr %3, i64 8
  %33 = load ptr, ptr %32, align 8, !tbaa !32
  %34 = icmp sgt i32 %22, 0
  %35 = icmp sgt i32 %30, 0
  %36 = select i1 %34, i1 %35, i1 false
  br i1 %36, label %.lr.ph, label %.preheader

.lr.ph:                                           ; preds = %6
  %37 = add nsw i32 %30, -1
  %38 = getelementptr inbounds nuw i8, ptr %4, i64 16
  %39 = getelementptr inbounds nuw i8, ptr %4, i64 24
  %40 = getelementptr inbounds nuw i8, ptr %5, i64 16
  %41 = getelementptr inbounds nuw i8, ptr %5, i64 24
  br label %46

.preheader:                                       ; preds = %76, %6
  %.0.lcssa = phi i32 [ %31, %6 ], [ %.1, %76 ]
  %42 = icmp sgt i32 %.0.lcssa, -1
  br i1 %42, label %.lr.ph39, label %._crit_edge

.lr.ph39:                                         ; preds = %.preheader
  %43 = getelementptr inbounds nuw i8, ptr %5, i64 16
  %44 = getelementptr inbounds nuw i8, ptr %5, i64 24
  %45 = zext nneg i32 %.0.lcssa to i64
  br label %80

46:                                               ; preds = %.lr.ph, %76
  %.037 = phi i32 [ %31, %.lr.ph ], [ %.1, %76 ]
  %.02536 = phi i32 [ %37, %.lr.ph ], [ %.126, %76 ]
  %47 = zext nneg i32 %.037 to i64
  %48 = load ptr, ptr %1, align 8, !tbaa !48
  %49 = getelementptr inbounds nuw ptr, ptr %48, i64 %47
  %50 = load ptr, ptr %49, align 8, !tbaa !58
  %51 = zext nneg i32 %.02536 to i64
  %52 = load ptr, ptr %2, align 8, !tbaa !48
  %53 = getelementptr inbounds nuw ptr, ptr %52, i64 %51
  %54 = load ptr, ptr %53, align 8, !tbaa !58
  call void @llvm.lifetime.start.p0(i64 8, ptr nonnull %13)
  call void @llvm.lifetime.start.p0(i64 8, ptr nonnull %14)
  store ptr %50, ptr %13, align 8, !tbaa !58
  store ptr %54, ptr %14, align 8, !tbaa !58
  %55 = load ptr, ptr %38, align 8, !tbaa !54
  %.not.i.i = icmp eq ptr %55, null
  br i1 %.not.i.i, label %56, label %_ZNKSt8functionIFiPKN7rocksdb12FileMetaDataES3_EEclES3_S3_.exit

56:                                               ; preds = %46
  call void @_ZSt25__throw_bad_function_callv() #22
  unreachable

_ZNKSt8functionIFiPKN7rocksdb12FileMetaDataES3_EEclES3_S3_.exit: ; preds = %46
  %57 = load ptr, ptr %39, align 8, !tbaa !51
  %58 = call noundef i32 %57(ptr noundef nonnull align 8 dereferenceable(32) %4, ptr noundef nonnull align 8 dereferenceable(8) %13, ptr noundef nonnull align 8 dereferenceable(8) %14)
  call void @llvm.lifetime.end.p0(i64 8, ptr nonnull %13)
  call void @llvm.lifetime.end.p0(i64 8, ptr nonnull %14)
  %59 = icmp eq i32 %58, 0
  br i1 %59, label %60, label %66

60:                                               ; preds = %_ZNKSt8functionIFiPKN7rocksdb12FileMetaDataES3_EEclES3_S3_.exit
  %61 = getelementptr inbounds nuw %"struct.rocksdb::FileIndexer::IndexUnit", ptr %33, i64 %47
  call void @llvm.lifetime.start.p0(i64 8, ptr nonnull %11)
  call void @llvm.lifetime.start.p0(i64 4, ptr nonnull %12)
  store ptr %61, ptr %11, align 8, !tbaa !60
  store i32 %.02536, ptr %12, align 4, !tbaa !30
  %62 = load ptr, ptr %40, align 8, !tbaa !54
  %.not.i.i28 = icmp eq ptr %62, null
  br i1 %.not.i.i28, label %63, label %_ZNKSt8functionIFvPN7rocksdb11FileIndexer9IndexUnitEiEEclES3_i.exit

63:                                               ; preds = %60
  call void @_ZSt25__throw_bad_function_callv() #22
  unreachable

_ZNKSt8functionIFvPN7rocksdb11FileIndexer9IndexUnitEiEEclES3_i.exit: ; preds = %60
  %64 = load ptr, ptr %41, align 8, !tbaa !55
  call void %64(ptr noundef nonnull align 8 dereferenceable(32) %5, ptr noundef nonnull align 8 dereferenceable(8) %11, ptr noundef nonnull align 4 dereferenceable(4) %12)
  call void @llvm.lifetime.end.p0(i64 8, ptr nonnull %11)
  call void @llvm.lifetime.end.p0(i64 4, ptr nonnull %12)
  %65 = add nsw i32 %.037, -1
  br label %76

66:                                               ; preds = %_ZNKSt8functionIFiPKN7rocksdb12FileMetaDataES3_EEclES3_S3_.exit
  %67 = icmp slt i32 %58, 0
  br i1 %67, label %68, label %70

68:                                               ; preds = %66
  %69 = add nsw i32 %.02536, -1
  br label %76

70:                                               ; preds = %66
  %71 = getelementptr inbounds nuw %"struct.rocksdb::FileIndexer::IndexUnit", ptr %33, i64 %47
  call void @llvm.lifetime.start.p0(i64 8, ptr nonnull %9)
  call void @llvm.lifetime.start.p0(i64 4, ptr nonnull %10)
  store ptr %71, ptr %9, align 8, !tbaa !60
  store i32 %.02536, ptr %10, align 4, !tbaa !30
  %72 = load ptr, ptr %40, align 8, !tbaa !54
  %.not.i.i29 = icmp eq ptr %72, null
  br i1 %.not.i.i29, label %73, label %_ZNKSt8functionIFvPN7rocksdb11FileIndexer9IndexUnitEiEEclES3_i.exit30

73:                                               ; preds = %70
  call void @_ZSt25__throw_bad_function_callv() #22
  unreachable

_ZNKSt8functionIFvPN7rocksdb11FileIndexer9IndexUnitEiEEclES3_i.exit30: ; preds = %70
  %74 = load ptr, ptr %41, align 8, !tbaa !55
  call void %74(ptr noundef nonnull align 8 dereferenceable(32) %5, ptr noundef nonnull align 8 dereferenceable(8) %9, ptr noundef nonnull align 4 dereferenceable(4) %10)
  call void @llvm.lifetime.end.p0(i64 8, ptr nonnull %9)
  call void @llvm.lifetime.end.p0(i64 4, ptr nonnull %10)
  %75 = add nsw i32 %.037, -1
  br label %76

76:                                               ; preds = %68, %_ZNKSt8functionIFvPN7rocksdb11FileIndexer9IndexUnitEiEEclES3_i.exit30, %_ZNKSt8functionIFvPN7rocksdb11FileIndexer9IndexUnitEiEEclES3_i.exit
  %.126 = phi i32 [ %.02536, %_ZNKSt8functionIFvPN7rocksdb11FileIndexer9IndexUnitEiEEclES3_i.exit ], [ %69, %68 ], [ %.02536, %_ZNKSt8functionIFvPN7rocksdb11FileIndexer9IndexUnitEiEEclES3_i.exit30 ]
  %.1 = phi i32 [ %65, %_ZNKSt8functionIFvPN7rocksdb11FileIndexer9IndexUnitEiEEclES3_i.exit ], [ %.037, %68 ], [ %75, %_ZNKSt8functionIFvPN7rocksdb11FileIndexer9IndexUnitEiEEclES3_i.exit30 ]
  %77 = icmp sgt i32 %.1, -1
  %78 = icmp sgt i32 %.126, -1
  %79 = select i1 %77, i1 %78, i1 false
  br i1 %79, label %46, label %.preheader, !llvm.loop !63

80:                                               ; preds = %.lr.ph39, %_ZNKSt8functionIFvPN7rocksdb11FileIndexer9IndexUnitEiEEclES3_i.exit32
  %indvars.iv = phi i64 [ %45, %.lr.ph39 ], [ %indvars.iv.next, %_ZNKSt8functionIFvPN7rocksdb11FileIndexer9IndexUnitEiEEclES3_i.exit32 ]
  %81 = getelementptr inbounds nuw %"struct.rocksdb::FileIndexer::IndexUnit", ptr %33, i64 %indvars.iv
  call void @llvm.lifetime.start.p0(i64 8, ptr nonnull %7)
  call void @llvm.lifetime.start.p0(i64 4, ptr nonnull %8)
  store ptr %81, ptr %7, align 8, !tbaa !60
  store i32 -1, ptr %8, align 4, !tbaa !30
  %82 = load ptr, ptr %43, align 8, !tbaa !54
  %.not.i.i31 = icmp eq ptr %82, null
  br i1 %.not.i.i31, label %83, label %_ZNKSt8functionIFvPN7rocksdb11FileIndexer9IndexUnitEiEEclES3_i.exit32

83:                                               ; preds = %80
  call void @_ZSt25__throw_bad_function_callv() #22
  unreachable

_ZNKSt8functionIFvPN7rocksdb11FileIndexer9IndexUnitEiEEclES3_i.exit32: ; preds = %80
  %84 = load ptr, ptr %44, align 8, !tbaa !55
  call void %84(ptr noundef nonnull align 8 dereferenceable(32) %5, ptr noundef nonnull align 8 dereferenceable(8) %7, ptr noundef nonnull align 4 dereferenceable(4) %8)
  call void @llvm.lifetime.end.p0(i64 8, ptr nonnull %7)
  call void @llvm.lifetime.end.p0(i64 4, ptr nonnull %8)
  %indvars.iv.next = add nsw i64 %indvars.iv, -1
  %85 = icmp sgt i64 %indvars.iv, 0
  br i1 %85, label %80, label %._crit_edge, !llvm.loop !64

._crit_edge:                                      ; preds = %_ZNKSt8functionIFvPN7rocksdb11FileIndexer9IndexUnitEiEEclES3_i.exit32, %.preheader
  ret void
}